; Function Attrs: mustprogress nofree norecurse nosync nounwind willreturn memory(read, inaccessiblemem: none) uwtable
define internal i32 @trackitem_compare_frequencies_desc(ptr noundef readonly captures(none) %0, ptr noundef readonly captures(none) %1, ptr readnone captures(none) %2) #4 {
  %4 = load ptr, ptr %1, align 8
  %5 = getelementptr inbounds nuw i8, ptr %4, i64 8
  %6 = load i32, ptr %5, align 8
  %7 = load ptr, ptr %0, align 8
  %8 = getelementptr inbounds nuw i8, ptr %7, i64 8
  %9 = load i32, ptr %8, align 8
  %10 = sub i32 %6, %9
  ret i32 %10
}